target datalayout = "e-m:e-p270:32:32-p271:32:32-p272:64:64-i64:64-i128:128-f80:128-n8:16:32:64-S128"
target triple = "x86_64-pc-linux-gnu"

@.str.18 = private unnamed_addr constant [36 x i8] c"../openssl/test/conf_include_test.c\00", align 1
@.str.33 = private unnamed_addr constant [2 x i8] c"0\00", align 1
@.str.43 = private unnamed_addr constant [4 x i8] c"val\00", align 1
@.str.67 = private unnamed_addr constant [26 x i8] c"setenv(\22FNORD\22, \22123\22, 1)\00", align 1
@.str.68 = private unnamed_addr constant [6 x i8] c"FNORD\00", align 1
@.str.69 = private unnamed_addr constant [4 x i8] c"123\00", align 1
@.str.70 = private unnamed_addr constant [49 x i8] c"NCONF_get_number(NULL, \22missing\22, \22FNORD\22, &val)\00", align 1
@.str.71 = private unnamed_addr constant [8 x i8] c"missing\00", align 1
@.str.72 = private unnamed_addr constant [43 x i8] c"environment variable with NULL conf failed\00", align 1
@.str.73 = private unnamed_addr constant [18 x i8] c"unsetenv(\22FNORD\22)\00", align 1
@.str.74 = private unnamed_addr constant [51 x i8] c"missing environment variable with NULL conf failed\00", align 1

; Function Attrs: nounwind uwtable
define internal i32 @test_check_null_numbers() #0 {
  %1 = alloca i32, align 4
  %2 = alloca i64, align 8
  %3 = alloca i32, align 4
  call void @llvm.lifetime.start.p0(i64 8, ptr %2) #5
  store i64 0, ptr %2, align 8, !tbaa !19
  %4 = call i32 @setenv(ptr noundef @.str.68, ptr noundef @.str.69, i32 noundef 1) #5
  %5 = call i32 @test_int_eq(ptr noundef @.str.18, i32 noundef 160, ptr noundef @.str.67, ptr noundef @.str.33, i32 noundef %4, i32 noundef 0)
  %6 = icmp ne i32 %5, 0
  br i1 %6, label %7, label %17

7:                                                ; preds = %0
  %8 = call i32 @NCONF_get_number_e(ptr noundef null, ptr noundef @.str.71, ptr noundef @.str.68, ptr noundef %2)
  %9 = icmp ne i32 %8, 0
  %10 = zext i1 %9 to i32
  %11 = call i32 @test_true(ptr noundef @.str.18, i32 noundef 161, ptr noundef @.str.70, i32 noundef %10)
  %12 = icmp ne i32 %11, 0
  br i1 %12, label %13, label %17

13:                                               ; preds = %7
  %14 = load i64, ptr %2, align 8, !tbaa !19
  %15 = call i32 @test_long_eq(ptr noundef @.str.18, i32 noundef 162, ptr noundef @.str.43, ptr noundef @.str.69, i64 noundef %14, i64 noundef 123)
  %16 = icmp ne i32 %15, 0
  br i1 %16, label %18, label %17

17:                                               ; preds = %13, %7, %0
  call void (ptr, ...) @test_note(ptr noundef @.str.72)
  store i32 0, ptr %1, align 4
  store i32 1, ptr %3, align 4
  br label %30

18:                                               ; preds = %13
  %19 = call i32 @unsetenv(ptr noundef @.str.68) #5
  %20 = call i32 @test_int_eq(ptr noundef @.str.18, i32 noundef 171, ptr noundef @.str.73, ptr noundef @.str.33, i32 noundef %19, i32 noundef 0)
  %21 = icmp ne i32 %20, 0
  br i1 %21, label %22, label %28

22:                                               ; preds = %18
  %23 = call i32 @NCONF_get_number_e(ptr noundef null, ptr noundef @.str.71, ptr noundef @.str.68, ptr noundef %2)
  %24 = icmp ne i32 %23, 0
  %25 = zext i1 %24 to i32
  %26 = call i32 @test_false(ptr noundef @.str.18, i32 noundef 172, ptr noundef @.str.70, i32 noundef %25)
  %27 = icmp ne i32 %26, 0
  br i1 %27, label %29, label %28

28:                                               ; preds = %22, %18
  call void (ptr, ...) @test_note(ptr noundef @.str.74)
  store i32 0, ptr %1, align 4
  store i32 1, ptr %3, align 4
  br label %30

29:                                               ; preds = %22
  store i32 1, ptr %1, align 4
  store i32 1, ptr %3, align 4
  br label %30

30:                                               ; preds = %29, %28, %17
  call void @llvm.lifetime.end.p0(i64 8, ptr %2) #5
  %31 = load i32, ptr %1, align 4
  ret i32 %31
}