; Function Attrs: nounwind uwtable
define internal range(i32 0, 2) i32 @test_check_null_numbers() #1 {
  %1 = alloca i64, align 8
  call void @llvm.lifetime.start.p0(i64 8, ptr nonnull %1) #8
  store i64 0, ptr %1, align 8, !tbaa !17
  %2 = tail call i32 @setenv(ptr noundef nonnull @.str.68, ptr noundef nonnull @.str.69, i32 noundef 1) #8
  %3 = tail call i32 @test_int_eq(ptr noundef nonnull @.str.18, i32 noundef 160, ptr noundef nonnull @.str.67, ptr noundef nonnull @.str.33, i32 noundef %2, i32 noundef 0) #8
  %.not = icmp eq i32 %3, 0
  br i1 %.not, label %.sink.split, label %4

4:                                                ; preds = %0
  %5 = call i32 @NCONF_get_number_e(ptr noundef null, ptr noundef nonnull @.str.71, ptr noundef nonnull @.str.68, ptr noundef nonnull %1) #8
  %6 = icmp ne i32 %5, 0
  %7 = zext i1 %6 to i32
  %8 = call i32 @test_true(ptr noundef nonnull @.str.18, i32 noundef 161, ptr noundef nonnull @.str.70, i32 noundef %7) #8
  %.not1 = icmp eq i32 %8, 0
  br i1 %.not1, label %.sink.split, label %9

9:                                                ; preds = %4
  %10 = load i64, ptr %1, align 8, !tbaa !17
  %11 = call i32 @test_long_eq(ptr noundef nonnull @.str.18, i32 noundef 162, ptr noundef nonnull @.str.43, ptr noundef nonnull @.str.69, i64 noundef %10, i64 noundef 123) #8
  %.not2 = icmp eq i32 %11, 0
  br i1 %.not2, label %.sink.split, label %12

12:                                               ; preds = %9
  %13 = call i32 @unsetenv(ptr noundef nonnull @.str.68) #8
  %14 = call i32 @test_int_eq(ptr noundef nonnull @.str.18, i32 noundef 171, ptr noundef nonnull @.str.73, ptr noundef nonnull @.str.33, i32 noundef %13, i32 noundef 0) #8
  %.not3 = icmp eq i32 %14, 0
  br i1 %.not3, label %.sink.split, label %15

15:                                               ; preds = %12
  %16 = call i32 @NCONF_get_number_e(ptr noundef null, ptr noundef nonnull @.str.71, ptr noundef nonnull @.str.68, ptr noundef nonnull %1) #8
  %17 = icmp ne i32 %16, 0
  %18 = zext i1 %17 to i32
  %19 = call i32 @test_false(ptr noundef nonnull @.str.18, i32 noundef 172, ptr noundef nonnull @.str.70, i32 noundef %18) #8
  %.not4 = icmp eq i32 %19, 0
  br i1 %.not4, label %.sink.split, label %20

.sink.split:                                      ; preds = %12, %15, %0, %4, %9
  %.str.74.sink = phi ptr [ @.str.72, %9 ], [ @.str.72, %4 ], [ @.str.72, %0 ], [ @.str.74, %15 ], [ @.str.74, %12 ]
  call void (ptr, ...) @test_note(ptr noundef nonnull %.str.74.sink) #8
  br label %20

20:                                               ; preds = %.sink.split, %15
  %.0 = phi i32 [ 1, %15 ], [ 0, %.sink.split ]
  call void @llvm.lifetime.end.p0(i64 8, ptr nonnull %1) #8
  ret i32 %.0
}